target datalayout = "e-m:e-p270:32:32-p271:32:32-p272:64:64-i64:64-i128:128-f80:128-n8:16:32:64-S128"
target triple = "x86_64-pc-linux-gnu"

%struct.StringInfoData = type { ptr, i32, i32, i32 }
%struct.StripnullState = type { ptr, ptr, i8 }

; Function Attrs: nounwind uwtable
define internal i32 @sn_array_start(ptr noundef %0) #0 {
  %2 = alloca ptr, align 8
  %3 = alloca ptr, align 8
  store ptr %0, ptr %2, align 8
  call void @llvm.lifetime.start.p0(i64 8, ptr %3) #10
  %4 = load ptr, ptr %2, align 8
  store ptr %4, ptr %3, align 8
  %5 = load ptr, ptr %3, align 8
  %6 = getelementptr inbounds nuw %struct.StripnullState, ptr %5, i32 0, i32 1
  %7 = load ptr, ptr %6, align 8
  %8 = getelementptr inbounds nuw %struct.StringInfoData, ptr %7, i32 0, i32 1
  %9 = load i32, ptr %8, align 8
  %10 = add i32 %9, 1
  %11 = load ptr, ptr %3, align 8
  %12 = getelementptr inbounds nuw %struct.StripnullState, ptr %11, i32 0, i32 1
  %13 = load ptr, ptr %12, align 8
  %14 = getelementptr inbounds nuw %struct.StringInfoData, ptr %13, i32 0, i32 2
  %15 = load i32, ptr %14, align 4
  %16 = icmp sge i32 %10, %15
  br i1 %16, label %17, label %21

17:                                               ; preds = %1
  %18 = load ptr, ptr %3, align 8
  %19 = getelementptr inbounds nuw %struct.StripnullState, ptr %18, i32 0, i32 1
  %20 = load ptr, ptr %19, align 8
  call void @appendStringInfoChar(ptr noundef %20, i8 noundef signext 91)
  br label %47

21:                                               ; preds = %1
  %22 = load ptr, ptr %3, align 8
  %23 = getelementptr inbounds nuw %struct.StripnullState, ptr %22, i32 0, i32 1
  %24 = load ptr, ptr %23, align 8
  %25 = getelementptr inbounds nuw %struct.StringInfoData, ptr %24, i32 0, i32 0
  %26 = load ptr, ptr %25, align 8
  %27 = load ptr, ptr %3, align 8
  %28 = getelementptr inbounds nuw %struct.StripnullState, ptr %27, i32 0, i32 1
  %29 = load ptr, ptr %28, align 8
  %30 = getelementptr inbounds nuw %struct.StringInfoData, ptr %29, i32 0, i32 1
  %31 = load i32, ptr %30, align 8
  %32 = sext i32 %31 to i64
  %33 = getelementptr inbounds i8, ptr %26, i64 %32
  store i8 91, ptr %33, align 1
  %34 = load ptr, ptr %3, align 8
  %35 = getelementptr inbounds nuw %struct.StripnullState, ptr %34, i32 0, i32 1
  %36 = load ptr, ptr %35, align 8
  %37 = getelementptr inbounds nuw %struct.StringInfoData, ptr %36, i32 0, i32 0
  %38 = load ptr, ptr %37, align 8
  %39 = load ptr, ptr %3, align 8
  %40 = getelementptr inbounds nuw %struct.StripnullState, ptr %39, i32 0, i32 1
  %41 = load ptr, ptr %40, align 8
  %42 = getelementptr inbounds nuw %struct.StringInfoData, ptr %41, i32 0, i32 1
  %43 = load i32, ptr %42, align 8
  %44 = add i32 %43, 1
  store i32 %44, ptr %42, align 8
  %45 = sext i32 %44 to i64
  %46 = getelementptr inbounds i8, ptr %38, i64 %45
  store i8 0, ptr %46, align 1
  br label %47

47:                                               ; preds = %21, %17
  call void @llvm.lifetime.end.p0(i64 8, ptr %3) #10
  ret i32 0
}